; Function Attrs: nounwind uwtable
define noalias nonnull ptr @l_Lean_Server_RequestError_toLspResponseError(ptr noundef %0, ptr noundef readonly captures(none) %1) local_unnamed_addr #1 {
  %3 = getelementptr inbounds nuw i8, ptr %1, i64 8
  %4 = getelementptr inbounds nuw i8, ptr %1, i64 16
  %5 = load i8, ptr %4, align 1, !tbaa !17
  %6 = load ptr, ptr %3, align 8, !tbaa !9
  %7 = ptrtoint ptr %6 to i64
  %8 = and i64 %7, 1
  %.not = icmp eq i64 %8, 0
  br i1 %.not, label %9, label %lean_inc.exit

9:                                                ; preds = %2
  %.val.i = load i32, ptr %6, align 4, !tbaa !4
  %10 = icmp sgt i32 %.val.i, 0
  br i1 %10, label %11, label %13, !prof !11

11:                                               ; preds = %9
  %12 = add nuw i32 %.val.i, 1
  store i32 %12, ptr %6, align 4, !tbaa !4
  br label %lean_inc.exit

13:                                               ; preds = %9
  %.not.i = icmp eq i32 %.val.i, 0
  br i1 %.not.i, label %lean_inc.exit, label %14

14:                                               ; preds = %13
  tail call void @lean_inc_ref_cold(ptr noundef nonnull %6) #6
  br label %lean_inc.exit

lean_inc.exit:                                    ; preds = %14, %13, %11, %2
  tail call void @lean_inc_heartbeat() #6
  %15 = tail call noalias ptr @mi_malloc_small(i64 noundef 40) #6
  %16 = icmp eq ptr %15, null
  br i1 %16, label %17, label %lean_alloc_ctor.exit

17:                                               ; preds = %lean_inc.exit
  tail call void @lean_internal_panic_out_of_memory() #7
  unreachable

lean_alloc_ctor.exit:                             ; preds = %lean_inc.exit
  %18 = getelementptr inbounds nuw i8, ptr %15, i64 4
  %19 = getelementptr inbounds nuw i8, ptr %15, i64 32
  store i64 0, ptr %19, align 8, !tbaa !12
  store i32 1, ptr %15, align 4, !tbaa !4
  store i32 196648, ptr %18, align 4
  %20 = getelementptr inbounds nuw i8, ptr %15, i64 8
  store ptr %0, ptr %20, align 8, !tbaa !9
  %21 = getelementptr inbounds nuw i8, ptr %15, i64 16
  store ptr %6, ptr %21, align 8, !tbaa !9
  %22 = getelementptr inbounds nuw i8, ptr %15, i64 24
  store ptr inttoptr (i64 1 to ptr), ptr %22, align 8, !tbaa !9
  store i8 %5, ptr %19, align 1, !tbaa !17
  ret ptr %15
}